target datalayout = "e-m:e-p270:32:32-p271:32:32-p272:64:64-i64:64-i128:128-f80:128-n8:16:32:64-S128"
target triple = "x86_64-pc-linux-gnu"

; Function Attrs: nounwind uwtable
define i32 @av_find_info_tag(ptr noundef %0, i32 noundef %1, ptr noundef %2, ptr noundef %3) #0 {
  %5 = alloca i32, align 4
  %6 = alloca ptr, align 8
  %7 = alloca i32, align 4
  %8 = alloca ptr, align 8
  %9 = alloca ptr, align 8
  %10 = alloca ptr, align 8
  %11 = alloca [128 x i8], align 16
  %12 = alloca ptr, align 8
  %13 = alloca i32, align 4
  store ptr %0, ptr %6, align 8, !tbaa !9
  store i32 %1, ptr %7, align 4, !tbaa !11
  store ptr %2, ptr %8, align 8, !tbaa !9
  store ptr %3, ptr %9, align 8, !tbaa !9
  call void @llvm.lifetime.start.p0(i64 8, ptr %10) #10
  call void @llvm.lifetime.start.p0(i64 128, ptr %11) #10
  call void @llvm.lifetime.start.p0(i64 8, ptr %12) #10
  %14 = load ptr, ptr %9, align 8, !tbaa !9
  store ptr %14, ptr %10, align 8, !tbaa !9
  %15 = load ptr, ptr %10, align 8, !tbaa !9
  %16 = load i8, ptr %15, align 1, !tbaa !28
  %17 = sext i8 %16 to i32
  %18 = icmp eq i32 %17, 63
  br i1 %18, label %19, label %22

19:                                               ; preds = %4
  %20 = load ptr, ptr %10, align 8, !tbaa !9
  %21 = getelementptr inbounds nuw i8, ptr %20, i32 1
  store ptr %21, ptr %10, align 8, !tbaa !9
  br label %22

22:                                               ; preds = %19, %4
  br label %23

23:                                               ; preds = %120, %22
  %24 = getelementptr inbounds [128 x i8], ptr %11, i64 0, i64 0
  store ptr %24, ptr %12, align 8, !tbaa !9
  br label %25

25:                                               ; preds = %54, %23
  %26 = load ptr, ptr %10, align 8, !tbaa !9
  %27 = load i8, ptr %26, align 1, !tbaa !28
  %28 = sext i8 %27 to i32
  %29 = icmp ne i32 %28, 0
  br i1 %29, label %30, label %40

30:                                               ; preds = %25
  %31 = load ptr, ptr %10, align 8, !tbaa !9
  %32 = load i8, ptr %31, align 1, !tbaa !28
  %33 = sext i8 %32 to i32
  %34 = icmp ne i32 %33, 61
  br i1 %34, label %35, label %40

35:                                               ; preds = %30
  %36 = load ptr, ptr %10, align 8, !tbaa !9
  %37 = load i8, ptr %36, align 1, !tbaa !28
  %38 = sext i8 %37 to i32
  %39 = icmp ne i32 %38, 38
  br label %40

40:                                               ; preds = %35, %30, %25
  %41 = phi i1 [ false, %30 ], [ false, %25 ], [ %39, %35 ]
  br i1 %41, label %42, label %57

42:                                               ; preds = %40
  %43 = load ptr, ptr %12, align 8, !tbaa !9
  %44 = getelementptr inbounds [128 x i8], ptr %11, i64 0, i64 0
  %45 = ptrtoint ptr %43 to i64
  %46 = ptrtoint ptr %44 to i64
  %47 = sub i64 %45, %46
  %48 = icmp ult i64 %47, 127
  br i1 %48, label %49, label %54

49:                                               ; preds = %42
  %50 = load ptr, ptr %10, align 8, !tbaa !9
  %51 = load i8, ptr %50, align 1, !tbaa !28
  %52 = load ptr, ptr %12, align 8, !tbaa !9
  %53 = getelementptr inbounds nuw i8, ptr %52, i32 1
  store ptr %53, ptr %12, align 8, !tbaa !9
  store i8 %51, ptr %52, align 1, !tbaa !28
  br label %54

54:                                               ; preds = %49, %42
  %55 = load ptr, ptr %10, align 8, !tbaa !9
  %56 = getelementptr inbounds nuw i8, ptr %55, i32 1
  store ptr %56, ptr %10, align 8, !tbaa !9
  br label %25, !llvm.loop !65

57:                                               ; preds = %40
  %58 = load ptr, ptr %12, align 8, !tbaa !9
  store i8 0, ptr %58, align 1, !tbaa !28
  %59 = load ptr, ptr %6, align 8, !tbaa !9
  store ptr %59, ptr %12, align 8, !tbaa !9
  %60 = load ptr, ptr %10, align 8, !tbaa !9
  %61 = load i8, ptr %60, align 1, !tbaa !28
  %62 = sext i8 %61 to i32
  %63 = icmp eq i32 %62, 61
  br i1 %63, label %64, label %107

64:                                               ; preds = %57
  %65 = load ptr, ptr %10, align 8, !tbaa !9
  %66 = getelementptr inbounds nuw i8, ptr %65, i32 1
  store ptr %66, ptr %10, align 8, !tbaa !9
  br label %67

67:                                               ; preds = %103, %64
  %68 = load ptr, ptr %10, align 8, !tbaa !9
  %69 = load i8, ptr %68, align 1, !tbaa !28
  %70 = sext i8 %69 to i32
  %71 = icmp ne i32 %70, 38
  br i1 %71, label %72, label %77

72:                                               ; preds = %67
  %73 = load ptr, ptr %10, align 8, !tbaa !9
  %74 = load i8, ptr %73, align 1, !tbaa !28
  %75 = sext i8 %74 to i32
  %76 = icmp ne i32 %75, 0
  br label %77

77:                                               ; preds = %72, %67
  %78 = phi i1 [ false, %67 ], [ %76, %72 ]
  br i1 %78, label %79, label %106

79:                                               ; preds = %77
  %80 = load ptr, ptr %12, align 8, !tbaa !9
  %81 = load ptr, ptr %6, align 8, !tbaa !9
  %82 = ptrtoint ptr %80 to i64
  %83 = ptrtoint ptr %81 to i64
  %84 = sub i64 %82, %83
  %85 = load i32, ptr %7, align 4, !tbaa !11
  %86 = sub nsw i32 %85, 1
  %87 = sext i32 %86 to i64
  %88 = icmp slt i64 %84, %87
  br i1 %88, label %89, label %103

89:                                               ; preds = %79
  %90 = load ptr, ptr %10, align 8, !tbaa !9
  %91 = load i8, ptr %90, align 1, !tbaa !28
  %92 = sext i8 %91 to i32
  %93 = icmp eq i32 %92, 43
  br i1 %93, label %94, label %97

94:                                               ; preds = %89
  %95 = load ptr, ptr %12, align 8, !tbaa !9
  %96 = getelementptr inbounds nuw i8, ptr %95, i32 1
  store ptr %96, ptr %12, align 8, !tbaa !9
  store i8 32, ptr %95, align 1, !tbaa !28
  br label %102

97:                                               ; preds = %89
  %98 = load ptr, ptr %10, align 8, !tbaa !9
  %99 = load i8, ptr %98, align 1, !tbaa !28
  %100 = load ptr, ptr %12, align 8, !tbaa !9
  %101 = getelementptr inbounds nuw i8, ptr %100, i32 1
  store ptr %101, ptr %12, align 8, !tbaa !9
  store i8 %99, ptr %100, align 1, !tbaa !28
  br label %102

102:                                              ; preds = %97, %94
  br label %103

103:                                              ; preds = %102, %79
  %104 = load ptr, ptr %10, align 8, !tbaa !9
  %105 = getelementptr inbounds nuw i8, ptr %104, i32 1
  store ptr %105, ptr %10, align 8, !tbaa !9
  br label %67, !llvm.loop !66

106:                                              ; preds = %77
  br label %107

107:                                              ; preds = %106, %57
  %108 = load ptr, ptr %12, align 8, !tbaa !9
  store i8 0, ptr %108, align 1, !tbaa !28
  %109 = getelementptr inbounds [128 x i8], ptr %11, i64 0, i64 0
  %110 = load ptr, ptr %8, align 8, !tbaa !9
  %111 = call i32 @strcmp(ptr noundef %109, ptr noundef %110) #12
  %112 = icmp ne i32 %111, 0
  br i1 %112, label %114, label %113

113:                                              ; preds = %107
  store i32 1, ptr %5, align 4
  store i32 1, ptr %13, align 4
  br label %124

114:                                              ; preds = %107
  %115 = load ptr, ptr %10, align 8, !tbaa !9
  %116 = load i8, ptr %115, align 1, !tbaa !28
  %117 = sext i8 %116 to i32
  %118 = icmp ne i32 %117, 38
  br i1 %118, label %119, label %120

119:                                              ; preds = %114
  br label %123

120:                                              ; preds = %114
  %121 = load ptr, ptr %10, align 8, !tbaa !9
  %122 = getelementptr inbounds nuw i8, ptr %121, i32 1
  store ptr %122, ptr %10, align 8, !tbaa !9
  br label %23

123:                                              ; preds = %119
  store i32 0, ptr %5, align 4
  store i32 1, ptr %13, align 4
  br label %124

124:                                              ; preds = %123, %113
  call void @llvm.lifetime.end.p0(i64 8, ptr %12) #10
  call void @llvm.lifetime.end.p0(i64 128, ptr %11) #10
  call void @llvm.lifetime.end.p0(i64 8, ptr %10) #10
  %125 = load i32, ptr %5, align 4
  ret i32 %125
}