; Function Attrs: nofree norecurse nounwind memory(argmem: readwrite) uwtable
define range(i32 0, 2) i32 @av_find_info_tag(ptr noundef %0, i32 noundef %1, ptr noundef readonly captures(none) %2, ptr noundef readonly captures(none) %3) local_unnamed_addr #14 {
  %5 = alloca [128 x i8], align 16
  call void @llvm.lifetime.start.p0(i64 128, ptr nonnull %5) #16
  %6 = load i8, ptr %3, align 1, !tbaa !21
  %7 = icmp eq i8 %6, 63
  %spec.select.idx = zext i1 %7 to i64
  %spec.select = getelementptr inbounds nuw i8, ptr %3, i64 %spec.select.idx
  %8 = ptrtoint ptr %5 to i64
  %9 = ptrtoint ptr %0 to i64
  %10 = add nsw i32 %1, -1
  %11 = sext i32 %10 to i64
  br label %12

12:                                               ; preds = %.backedge, %4
  %.232 = phi ptr [ %spec.select, %4 ], [ %.232.be, %.backedge ]
  %.0 = phi ptr [ %5, %4 ], [ %.0.be, %.backedge ]
  %13 = load i8, ptr %.232, align 1, !tbaa !21
  switch i8 %13, label %14 [
    i8 0, label %.critedge
    i8 61, label %.critedge
    i8 38, label %.critedge
  ]

14:                                               ; preds = %12
  %15 = ptrtoint ptr %.0 to i64
  %16 = sub i64 %15, %8
  %17 = icmp ult i64 %16, 127
  br i1 %17, label %18, label %.backedge

18:                                               ; preds = %14
  %19 = getelementptr inbounds nuw i8, ptr %.0, i64 1
  store i8 %13, ptr %.0, align 1, !tbaa !21
  br label %.backedge

.backedge:                                        ; preds = %14, %18, %30
  %.232.pn46 = phi ptr [ %.333, %30 ], [ %.232, %18 ], [ %.232, %14 ]
  %.0.be = phi ptr [ %5, %30 ], [ %19, %18 ], [ %.0, %14 ]
  %.232.be = getelementptr inbounds nuw i8, ptr %.232.pn46, i64 1
  br label %12, !llvm.loop !50

.critedge:                                        ; preds = %12, %12, %12
  store i8 0, ptr %.0, align 1, !tbaa !21
  %20 = load i8, ptr %.232, align 1, !tbaa !21
  %21 = icmp eq i8 %20, 61
  br i1 %21, label %.preheader.outer, label %.critedge2

.preheader.outer:                                 ; preds = %.critedge, %.sink.split
  %.232.pn.ph = phi ptr [ %.434, %.sink.split ], [ %.232, %.critedge ]
  %.3.ph = phi ptr [ %28, %.sink.split ], [ %0, %.critedge ]
  %22 = ptrtoint ptr %.3.ph to i64
  %23 = sub i64 %22, %9
  %24 = icmp slt i64 %23, %11
  br label %.preheader

.preheader:                                       ; preds = %.preheader.outer, %26
  %.232.pn = phi ptr [ %.434, %26 ], [ %.232.pn.ph, %.preheader.outer ]
  %.434 = getelementptr inbounds nuw i8, ptr %.232.pn, i64 1
  %25 = load i8, ptr %.434, align 1, !tbaa !21
  switch i8 %25, label %26 [
    i8 38, label %.critedge2
    i8 0, label %.critedge2
  ]

26:                                               ; preds = %.preheader
  br i1 %24, label %.sink.split, label %.preheader, !llvm.loop !51

.sink.split:                                      ; preds = %26
  %27 = icmp eq i8 %25, 43
  %28 = getelementptr inbounds nuw i8, ptr %.3.ph, i64 1
  %. = select i1 %27, i8 32, i8 %25
  store i8 %., ptr %.3.ph, align 1, !tbaa !21
  br label %.preheader.outer, !llvm.loop !51

.critedge2:                                       ; preds = %.preheader, %.preheader, %.critedge
  %.333 = phi ptr [ %.232, %.critedge ], [ %.434, %.preheader ], [ %.434, %.preheader ]
  %.2 = phi ptr [ %0, %.critedge ], [ %.3.ph, %.preheader ], [ %.3.ph, %.preheader ]
  store i8 0, ptr %.2, align 1, !tbaa !21
  %29 = call i32 @strcmp(ptr noundef nonnull dereferenceable(1) %5, ptr noundef nonnull dereferenceable(1) %2) #18
  %.not42 = icmp eq i32 %29, 0
  br i1 %.not42, label %32, label %30

30:                                               ; preds = %.critedge2
  %31 = load i8, ptr %.333, align 1, !tbaa !21
  %.not43 = icmp eq i8 %31, 38
  br i1 %.not43, label %.backedge, label %32

32:                                               ; preds = %30, %.critedge2
  %.035 = phi i32 [ 1, %.critedge2 ], [ 0, %30 ]
  call void @llvm.lifetime.end.p0(i64 128, ptr nonnull %5) #16
  ret i32 %.035
}